target datalayout = "e-m:e-p270:32:32-p271:32:32-p272:64:64-i64:64-i128:128-f80:128-n8:16:32:64-S128"
target triple = "x86_64-pc-linux-gnu"

%struct.AVProbeData = type { ptr, ptr, i32, ptr }

@.str.3 = private unnamed_addr constant [22 x i8] c"%*3d:%*2d:%*2d.%*2d%c\00", align 1
@.str.4 = private unnamed_addr constant [17 x i8] c"%*3d:%*2d:%*2d%c\00", align 1
@.str.5 = private unnamed_addr constant [4 x i8] c": =\00", align 1

; Function Attrs: nounwind uwtable
define internal i32 @vplayer_probe(ptr noundef %0) #0 {
  %2 = alloca i32, align 4
  %3 = alloca ptr, align 8
  %4 = alloca i8, align 1
  %5 = alloca ptr, align 8
  %6 = alloca i32, align 4
  store ptr %0, ptr %3, align 8, !tbaa !4
  call void @llvm.lifetime.start.p0(i64 1, ptr %4) #6
  call void @llvm.lifetime.start.p0(i64 8, ptr %5) #6
  %7 = load ptr, ptr %3, align 8, !tbaa !4
  %8 = getelementptr inbounds nuw %struct.AVProbeData, ptr %7, i32 0, i32 1
  %9 = load ptr, ptr %8, align 8, !tbaa !9
  store ptr %9, ptr %5, align 8, !tbaa !13
  %10 = load ptr, ptr %5, align 8, !tbaa !13
  %11 = call i32 (ptr, ptr, ...) @__isoc99_sscanf(ptr noundef %10, ptr noundef @.str.3, ptr noundef %4) #6
  %12 = icmp eq i32 %11, 1
  br i1 %12, label %17, label %13

13:                                               ; preds = %1
  %14 = load ptr, ptr %5, align 8, !tbaa !13
  %15 = call i32 (ptr, ptr, ...) @__isoc99_sscanf(ptr noundef %14, ptr noundef @.str.4, ptr noundef %4) #6
  %16 = icmp eq i32 %15, 1
  br i1 %16, label %17, label %23

17:                                               ; preds = %13, %1
  %18 = load i8, ptr %4, align 1, !tbaa !14
  %19 = sext i8 %18 to i32
  %20 = call ptr @strchr(ptr noundef @.str.5, i32 noundef %19) #7
  %21 = icmp ne ptr %20, null
  br i1 %21, label %22, label %23

22:                                               ; preds = %17
  store i32 100, ptr %2, align 4
  store i32 1, ptr %6, align 4
  br label %24

23:                                               ; preds = %17, %13
  store i32 0, ptr %2, align 4
  store i32 1, ptr %6, align 4
  br label %24

24:                                               ; preds = %23, %22
  call void @llvm.lifetime.end.p0(i64 8, ptr %5) #6
  call void @llvm.lifetime.end.p0(i64 1, ptr %4) #6
  %25 = load i32, ptr %2, align 4
  ret i32 %25
}