; Function Attrs: nofree nounwind uwtable
define internal range(i32 0, 101) i32 @vplayer_probe(ptr noundef readonly captures(none) %0) #0 {
  %2 = alloca i8, align 1
  call void @llvm.lifetime.start.p0(i64 1, ptr nonnull %2) #6
  %3 = getelementptr inbounds nuw i8, ptr %0, i64 8
  %4 = load ptr, ptr %3, align 8, !tbaa !4
  %5 = call i32 (ptr, ptr, ...) @__isoc99_sscanf(ptr noundef %4, ptr noundef nonnull @.str.3, ptr noundef nonnull %2) #6
  %6 = icmp eq i32 %5, 1
  br i1 %6, label %10, label %7

7:                                                ; preds = %1
  %8 = call i32 (ptr, ptr, ...) @__isoc99_sscanf(ptr noundef %4, ptr noundef nonnull @.str.4, ptr noundef nonnull %2) #6
  %9 = icmp eq i32 %8, 1
  br i1 %9, label %10, label %15

10:                                               ; preds = %7, %1
  %11 = load i8, ptr %2, align 1, !tbaa !11
  %12 = zext nneg i8 %11 to i64
  %memchr.bounds = icmp ugt i8 %11, 63
  %13 = shl nuw i64 1, %12
  %14 = and i64 %13, 2594073389660372993
  %memchr.bits = icmp eq i64 %14, 0
  %memchr3.not = select i1 %memchr.bounds, i1 true, i1 %memchr.bits
  br i1 %memchr3.not, label %15, label %16

15:                                               ; preds = %10, %7
  br label %16

16:                                               ; preds = %10, %15
  %.0 = phi i32 [ 0, %15 ], [ 100, %10 ]
  call void @llvm.lifetime.end.p0(i64 1, ptr nonnull %2) #6
  ret i32 %.0
}